; Function Attrs: mustprogress nofree norecurse nosync nounwind willreturn memory(readwrite, inaccessiblemem: none) uwtable
define hidden void @_ZN9Assembler5pushaEv(ptr nocapture noundef nonnull readonly align 8 dereferenceable(40) %0) local_unnamed_addr #8 align 2 {
  %2 = getelementptr inbounds i8, ptr %0, i64 8
  %3 = load ptr, ptr %2, align 8
  %4 = load ptr, ptr @_ZL10pusha_code, align 8
  %5 = load i32, ptr @_ZL9pusha_len, align 4
  %6 = getelementptr inbounds i8, ptr %3, i64 16
  %7 = load ptr, ptr %6, align 8
  %8 = sext i32 %5 to i64
  tail call void @llvm.memcpy.p0.p0.i64(ptr align 1 %7, ptr readonly align 1 %4, i64 %8, i1 false)
  %9 = getelementptr inbounds i8, ptr %7, i64 %8
  store ptr %9, ptr %6, align 8
  ret void
}